Certificate:
    Data:
        Version: 3 (0x2)
        Serial Number:
            3e:7b:cf:3e:99:5a:80:cb:dd:20:af:71:90:b5:e3:0f:08:94:88:e3
        Signature Algorithm: sha256WithRSAEncryption
        Issuer: C=CN, ST=BJ, O=primihub, CN=SGX_ROOT_CA
        Validity
            Not Before: Apr 24 07:19:48 2023 GMT
            Not After : Apr 23 07:19:48 2026 GMT
        Subject: C=CN, ST=BJ, O=primihub, CN=SGX_ROOT_CA
        Subject Public Key Info:
            Public Key Algorithm: rsaEncryption
                RSA Public-Key: (2048 bit)
                Modulus:
                    00:cc:cd:51:a3:23:ef:ba:a5:45:08:ac:e1:09:7c:
                    70:33:36:a2:f1:df:39:ff:03:35:33:f1:98:f5:33:
                    50:03:d3:bf:ef:e3:e8:67:3b:db:4e:63:25:16:70:
                    bf:33:6f:d0:e6:1c:87:8c:8d:e9:a8:6e:c8:3c:46:
                    d1:3e:73:f0:35:32:bf:ac:c0:b2:1e:93:ad:1e:25:
                    de:c0:d9:23:ad:87:1c:3a:ef:e3:30:01:77:ee:e1:
                    0d:39:8f:4f:a7:cc:7d:78:e5:31:2c:43:48:71:7b:
                    3c:9a:36:8f:03:c4:8c:11:f6:15:88:86:00:c7:33:
                    fa:b4:03:fe:2f:2e:cc:a0:5d:37:66:c6:f6:cc:f9:
                    3c:e6:8b:42:61:13:15:d7:b0:e7:53:07:17:0e:7d:
                    a5:e8:54:de:29:4f:54:b3:c3:a7:ba:86:0c:de:55:
                    b2:2d:b4:90:bd:31:64:c7:fe:6e:b5:c8:cb:91:f9:
                    ba:51:77:cd:67:44:1d:47:03:01:18:c0:ca:21:a6:
                    46:d5:56:38:01:29:fd:78:e0:f0:27:fc:75:72:d2:
                    81:b6:42:a5:03:ce:cb:33:5c:13:0f:eb:98:d7:59:
                    01:29:5a:af:7d:6d:ee:a6:92:74:f1:36:dd:e7:76:
                    62:ef:ea:9f:2f:6a:fd:b5:19:87:76:b8:af:96:e5:
                    c6:ef
                Exponent: 65537 (0x10001)
        X509v3 extensions:
            X509v3 Subject Key Identifier: 
                DD:D8:E2:73:D8:F9:0E:85:24:94:3D:8C:A7:E3:A3:13:F1:CE:2F:3D
            X509v3 Authority Key Identifier: 
                keyid:DD:D8:E2:73:D8:F9:0E:85:24:94:3D:8C:A7:E3:A3:13:F1:CE:2F:3D

            X509v3 Basic Constraints: critical
                CA:TRUE
    Signature Algorithm: sha256WithRSAEncryption
         38:fe:74:b2:29:27:4a:ee:71:07:8e:7a:12:7a:55:b6:b7:4a:
         bb:7c:f7:f8:b4:00:cd:37:a1:94:5f:54:1f:88:12:f2:dd:bd:
         1a:5b:1e:22:da:eb:ce:49:ea:09:08:a1:24:c1:a8:87:ff:61:
         04:69:48:21:7f:3f:b5:9e:78:09:46:50:3c:0c:4b:67:bf:34:
         2b:f4:c5:20:d6:45:70:bc:9c:af:ef:31:8a:a4:af:f3:60:f8:
         0c:c2:54:df:a9:18:f9:83:d4:f6:ff:14:09:99:91:29:97:85:
         aa:e4:74:03:98:a2:68:2f:a0:9a:58:d3:63:c2:ad:af:08:67:
         8a:fa:28:f9:42:95:c1:2a:e0:1b:45:99:7a:5d:24:5a:85:a2:
         af:e8:f9:73:39:f9:6d:07:20:66:74:d9:47:32:39:c5:d6:0d:
         a2:f6:0c:37:ad:cd:8e:ba:0a:30:18:22:36:50:d2:57:fc:9a:
         a6:81:98:08:b1:0f:e4:9c:6a:04:c8:b2:e7:3a:89:07:5a:c8:
         4e:94:4d:ca:c0:a2:a1:c2:c8:7f:69:a1:31:a1:40:ae:e2:87:
         63:c3:22:15:b2:f3:80:b2:c6:92:86:95:67:0e:56:29:87:86:
         0a:01:be:6d:10:34:97:8b:fb:91:d5:09:0a:8b:a1:f6:66:c9:
         73:f2:56:a1
-----BEGIN CERTIFICATE-----
MIIDZzCCAk+gAwIBAgIUPnvPPplagMvdIK9xkLXjDwiUiOMwDQYJKoZIhvcNAQEL
BQAwQzELMAkGA1UEBhMCQ04xCzAJBgNVBAgMAkJKMREwDwYDVQQKDAhwcmltaWh1
YjEUMBIGA1UEAwwLU0dYX1JPT1RfQ0EwHhcNMjMwNDI0MDcxOTQ4WhcNMjYwNDIz
MDcxOTQ4WjBDMQswCQYDVQQGEwJDTjELMAkGA1UECAwCQkoxETAPBgNVBAoMCHBy
aW1paHViMRQwEgYDVQQDDAtTR1hfUk9PVF9DQTCCASIwDQYJKoZIhvcNAQEBBQAD
ggEPADCCAQoCggEBAMzNUaMj77qlRQis4Ql8cDM2ovHfOf8DNTPxmPUzUAPTv+/j
6Gc7205jJRZwvzNv0OYch4yN6ahuyDxG0T5z8DUyv6zAsh6TrR4l3sDZI62HHDrv
4zABd+7hDTmPT6fMfXjlMSxDSHF7PJo2jwPEjBH2FYiGAMcz+rQD/i8uzKBdN2bG
9sz5POaLQmETFdew51MHFw59pehU3ilPVLPDp7qGDN5Vsi20kL0xZMf+brXIy5H5
ulF3zWdEHUcDARjAyiGmRtVWOAEp/Xjg8Cf8dXLSgbZCpQPOyzNcEw/rmNdZASla
r31t7qaSdPE23ed2Yu/qny9q/bUZh3a4r5blxu8CAwEAAaNTMFEwHQYDVR0OBBYE
FN3Y4nPY+Q6FJJQ9jKfjoxPxzi89MB8GA1UdIwQYMBaAFN3Y4nPY+Q6FJJQ9jKfj
oxPxzi89MA8GA1UdEwEB/wQFMAMBAf8wDQYJKoZIhvcNAQELBQADggEBADj+dLIp
J0rucQeOehJ6Vba3Srt89/i0AM03oZRfVB+IEvLdvRpbHiLa685J6gkIoSTBqIf/
YQRpSCF/P7WeeAlGUDwMS2e/NCv0xSDWRXC8nK/vMYqkr/Ng+AzCVN+pGPmD1Pb/
FAmZkSmXharkdAOYomgvoJpY02PCra8IZ4r6KPlClcEq4BtFmXpdJFqFoq/o+XM5
+W0HIGZ02UcyOcXWDaL2DDetzY66CjAYIjZQ0lf8mqaBmAixD+ScagTIsuc6iQda
yE6UTcrAoqHCyH9poTGhQK7ih2PDIhWy84CyxpKGlWcOVimHhgoBvm0QNJeL+5HV
CQqLofZmyXPyVqE=
-----END CERTIFICATE-----
