Certificate:
    Data:
        Version: 3 (0x2)
        Serial Number:
            7b:83:91:2a:fb:3f:a9:cb:c1:6b:18:f1:71:dc:41:c8:2d:2d:dc:70
        Signature Algorithm: sha256WithRSAEncryption
        Issuer: C=CN, ST=BJ, O=primihub, CN=SGX_ROOT
        Validity
            Not Before: Feb 21 11:28:55 2023 GMT
            Not After : Feb 21 11:28:55 2024 GMT
        Subject: C=CN, ST=BJ, O=primihub, CN=SGX
        Subject Public Key Info:
            Public Key Algorithm: rsaEncryption
                RSA Public-Key: (3072 bit)
                Modulus:
                    00:bb:8d:b9:83:82:0d:a2:ea:66:4f:76:1f:77:a7:
                    9f:d4:0c:a2:5e:37:e4:59:e9:ec:80:57:cd:e6:3a:
                    f3:51:ae:f3:ed:b3:ac:f3:f1:27:67:a4:3a:8a:63:
                    19:79:16:9a:1e:9d:d0:34:7d:44:af:f1:c1:e1:4e:
                    7b:94:11:b5:90:94:89:02:14:6c:f0:ae:a4:d1:40:
                    c3:61:da:dd:f3:25:af:1a:93:3f:c7:6c:95:e3:62:
                    8d:8a:6b:8f:11:52:9c:80:b8:03:d5:57:ab:4f:92:
                    17:06:bf:bd:56:54:f0:23:9a:4d:db:56:65:a5:2a:
                    8f:9a:95:b1:51:0a:20:46:9d:a9:a8:b3:29:74:21:
                    be:98:34:53:8e:03:0d:df:68:71:bb:a1:8b:5d:05:
                    8d:94:d7:f3:e5:9b:8d:68:fd:07:47:7a:92:ad:2f:
                    00:e9:53:7b:4b:6c:d2:5c:b7:d8:c3:4c:44:fb:34:
                    95:bb:b7:15:7c:20:61:af:db:50:15:20:13:a4:a1:
                    16:48:f8:b1:ef:3b:04:35:f4:d4:34:aa:69:bb:0f:
                    97:f5:d3:ee:d8:50:0e:78:25:f2:b9:0a:b4:b9:ad:
                    c0:a6:09:c6:f9:b8:98:e5:d6:8c:8a:44:64:1a:24:
                    2e:e9:9a:72:fa:cc:3e:b4:cd:5d:c4:f7:22:5b:12:
                    17:da:1b:fb:53:f3:f1:3f:1f:38:2b:79:61:7d:00:
                    37:6b:10:3c:b4:a4:02:57:20:cc:da:16:22:a5:59:
                    85:c0:84:a7:41:4b:ea:32:6d:d6:53:9c:06:84:16:
                    76:89:78:78:5e:ee:98:1d:de:23:e6:db:ff:25:30:
                    b0:61:42:39:8a:9c:8b:f1:1b:ad:b6:19:48:2c:aa:
                    dc:79:df:0c:bd:43:a6:40:f7:20:ad:a6:f6:3e:9e:
                    e5:f7:73:80:60:35:85:f4:e8:57:01:34:6b:cb:77:
                    d3:f3:4c:5e:1b:59:7f:97:3a:14:1d:68:7c:4c:26:
                    e3:f7:36:2c:ba:80:67:42:ca:b9
                Exponent: 3 (0x3)
        X509v3 extensions:
            X509v3 Basic Constraints: 
                CA:FALSE
            Netscape Comment: 
                OpenSSL Generated Certificate
            X509v3 Subject Key Identifier: 
                6D:A9:04:6E:AF:CA:47:3A:44:D4:13:7A:4D:1E:1A:57:89:C2:37:C0
            X509v3 Authority Key Identifier: 
                keyid:B7:28:EB:8A:90:CC:96:D1:5D:4B:C1:74:14:04:04:9A:9A:B5:F2:71

            1.2.840.113741.1: 
                0123456789abcdef
    Signature Algorithm: sha256WithRSAEncryption
         af:43:9d:33:1a:13:bd:ae:b1:8d:15:9e:37:37:fe:cb:99:77:
         f8:c0:5c:4d:72:48:b1:24:d7:ec:2f:e2:33:9e:c7:b0:86:b2:
         0a:85:8d:a9:23:55:f8:9a:22:5c:5d:9b:c0:40:4d:9b:31:83:
         c6:2d:1f:5e:a5:37:0c:12:5e:32:e5:45:25:06:d5:c0:f2:a1:
         5f:5a:81:cf:e3:91:c1:4f:a5:cd:5e:5e:ab:47:e1:2e:8c:15:
         10:36:51:2f:ff:16:66:87:72:68:da:2c:d7:45:5d:25:40:a0:
         df:ef:ff:60:ed:70:20:1d:a0:4d:1d:b2:46:1c:63:cd:a6:33:
         be:23:36:c9:b2:72:76:74:f8:7d:5e:2b:10:15:d4:3b:11:75:
         47:e0:f7:e8:9f:32:34:e0:a3:f9:8f:df:cc:b5:4a:03:4e:fb:
         0d:fa:cd:fd:31:85:23:fc:33:29:0c:0e:3f:70:a0:55:df:09:
         4a:8a:40:fa:18:22:26:57:bc:36:7a:2e:7e:0e:8c:36:01:33:
         ae:2e:f7:2a:03:90:d6:38:32:6d:0b:60:36:05:13:bf:68:07:
         a3:d9:ec:e9:6e:76:7d:44:4b:92:80:71:5a:02:f0:c2:af:f0:
         ef:c9:92:1f:a7:4b:be:7a:bf:8b:0c:18:ac:61:0c:ed:cc:03:
         41:ce:41:d6
-----BEGIN CERTIFICATE-----
MIIEITCCAwmgAwIBAgIUe4ORKvs/qcvBaxjxcdxByC0t3HAwDQYJKoZIhvcNAQEL
BQAwQDELMAkGA1UEBhMCQ04xCzAJBgNVBAgMAkJKMREwDwYDVQQKDAhwcmltaWh1
YjERMA8GA1UEAwwIU0dYX1JPT1QwHhcNMjMwMjIxMTEyODU1WhcNMjQwMjIxMTEy
ODU1WjA7MQswCQYDVQQGEwJDTjELMAkGA1UECAwCQkoxETAPBgNVBAoMCHByaW1p
aHViMQwwCgYDVQQDDANTR1gwggGgMA0GCSqGSIb3DQEBAQUAA4IBjQAwggGIAoIB
gQC7jbmDgg2i6mZPdh93p5/UDKJeN+RZ6eyAV83mOvNRrvPts6zz8SdnpDqKYxl5
FpoendA0fUSv8cHhTnuUEbWQlIkCFGzwrqTRQMNh2t3zJa8akz/HbJXjYo2Ka48R
UpyAuAPVV6tPkhcGv71WVPAjmk3bVmWlKo+albFRCiBGnamosyl0Ib6YNFOOAw3f
aHG7oYtdBY2U1/Plm41o/QdHepKtLwDpU3tLbNJct9jDTET7NJW7txV8IGGv21AV
IBOkoRZI+LHvOwQ19NQ0qmm7D5f10+7YUA54JfK5CrS5rcCmCcb5uJjl1oyKRGQa
JC7pmnL6zD60zV3E9yJbEhfaG/tT8/E/HzgreWF9ADdrEDy0pAJXIMzaFiKlWYXA
hKdBS+oybdZTnAaEFnaJeHhe7pgd3iPm2/8lMLBhQjmKnIvxG622GUgsqtx53wy9
Q6ZA9yCtpvY+nuX3c4BgNYX06FcBNGvLd9PzTF4bWX+XOhQdaHxMJuP3Niy6gGdC
yrkCAQOjgZkwgZYwCQYDVR0TBAIwADAsBglghkgBhvhCAQ0EHxYdT3BlblNTTCBH
ZW5lcmF0ZWQgQ2VydGlmaWNhdGUwHQYDVR0OBBYEFG2pBG6vykc6RNQTek0eGleJ
wjfAMB8GA1UdIwQYMBaAFLco64qQzJbRXUvBdBQEBJqatfJxMBsGByqGSIb4TQEE
EDAxMjM0NTY3ODlhYmNkZWYwDQYJKoZIhvcNAQELBQADggEBAK9DnTMaE72usY0V
njc3/suZd/jAXE1ySLEk1+wv4jOex7CGsgqFjakjVfiaIlxdm8BATZsxg8YtH16l
NwwSXjLlRSUG1cDyoV9agc/jkcFPpc1eXqtH4S6MFRA2US//FmaHcmjaLNdFXSVA
oN/v/2DtcCAdoE0dskYcY82mM74jNsmycnZ0+H1eKxAV1DsRdUfg9+ifMjTgo/mP
38y1SgNO+w36zf0xhSP8MykMDj9woFXfCUqKQPoYIiZXvDZ6Ln4OjDYBM64u9yoD
kNY4Mm0LYDYFE79oB6PZ7Oludn1ES5KAcVoC8MKv8O/Jkh+nS756v4sMGKxhDO3M
A0HOQdY=
-----END CERTIFICATE-----
